target datalayout = "e-m:e-p270:32:32-p271:32:32-p272:64:64-i64:64-i128:128-f80:128-n8:16:32:64-S128"
target triple = "x86_64-pc-linux-gnu"

@_ZTISt9exception = external constant ptr
@.str.132 = private unnamed_addr constant [17 x i8] c"psetupB failed: \00", align 1

; Function Attrs: mustprogress uwtable
define available_externally noundef nonnull align 8 dereferenceable(8) ptr @_ZNSolsEPFRSoS_E(ptr noundef nonnull align 8 dereferenceable(8) %0, ptr noundef %1) #6 align 2 {
  %3 = alloca ptr, align 8
  %4 = alloca ptr, align 8
  store ptr %0, ptr %3, align 8, !tbaa !185
  store ptr %1, ptr %4, align 8, !tbaa !45
  %5 = load ptr, ptr %3, align 8
  %6 = load ptr, ptr %4, align 8, !tbaa !45
  %7 = call noundef nonnull align 8 dereferenceable(8) ptr %6(ptr noundef nonnull align 8 dereferenceable(8) %5)
  ret ptr %7
}

; Function Attrs: mustprogress uwtable
define noundef i32 @_ZN6casadi13IdasInterface7psetupBEdP17_generic_N_VectorS2_S2_S2_S2_dPvS2_S2_S2_(double noundef %0, ptr noundef %1, ptr noundef %2, ptr noundef %3, ptr noundef %4, ptr noundef %5, double noundef %6, ptr noundef %7, ptr noundef %8, ptr noundef %9, ptr noundef %10) #6 align 2 personality ptr @__gxx_personality_v0 {
  %12 = alloca i32, align 4
  %13 = alloca double, align 8
  %14 = alloca ptr, align 8
  %15 = alloca ptr, align 8
  %16 = alloca ptr, align 8
  %17 = alloca ptr, align 8
  %18 = alloca ptr, align 8
  %19 = alloca double, align 8
  %20 = alloca ptr, align 8
  %21 = alloca ptr, align 8
  %22 = alloca ptr, align 8
  %23 = alloca ptr, align 8
  %24 = alloca ptr, align 8
  %25 = alloca i32, align 4
  %26 = alloca ptr, align 8
  store double %0, ptr %13, align 8, !tbaa !39
  store ptr %1, ptr %14, align 8, !tbaa !207
  store ptr %2, ptr %15, align 8, !tbaa !207
  store ptr %3, ptr %16, align 8, !tbaa !207
  store ptr %4, ptr %17, align 8, !tbaa !207
  store ptr %5, ptr %18, align 8, !tbaa !207
  store double %6, ptr %19, align 8, !tbaa !39
  store ptr %7, ptr %20, align 8, !tbaa !45
  store ptr %8, ptr %21, align 8, !tbaa !207
  store ptr %9, ptr %22, align 8, !tbaa !207
  store ptr %10, ptr %23, align 8, !tbaa !207
  %27 = load double, ptr %13, align 8, !tbaa !39
  %28 = load ptr, ptr %14, align 8, !tbaa !207
  %29 = load double, ptr %19, align 8, !tbaa !39
  %30 = fneg double %29
  %31 = load ptr, ptr %20, align 8, !tbaa !45
  %32 = load ptr, ptr %21, align 8, !tbaa !207
  %33 = load ptr, ptr %22, align 8, !tbaa !207
  %34 = load ptr, ptr %23, align 8, !tbaa !207
  %35 = invoke noundef i32 @_ZN6casadi13IdasInterface7psetupFEdP17_generic_N_VectorS2_S2_dPvS2_S2_S2_(double noundef %27, ptr noundef %28, ptr noundef null, ptr noundef null, double noundef %30, ptr noundef %31, ptr noundef %32, ptr noundef %33, ptr noundef %34)
          to label %36 unwind label %37

36:                                               ; preds = %11
  store i32 %35, ptr %12, align 4
  br label %67

37:                                               ; preds = %11
  %38 = landingpad { ptr, i32 }
          catch ptr @_ZTISt9exception
  %39 = extractvalue { ptr, i32 } %38, 0
  store ptr %39, ptr %24, align 8
  %40 = extractvalue { ptr, i32 } %38, 1
  store i32 %40, ptr %25, align 4
  br label %41

41:                                               ; preds = %37
  %42 = load i32, ptr %25, align 4
  %43 = call i32 @llvm.eh.typeid.for.p0(ptr @_ZTISt9exception) #3
  %44 = icmp eq i32 %42, %43
  br i1 %44, label %45, label %69

45:                                               ; preds = %41
  call void @llvm.lifetime.start.p0(i64 8, ptr %26) #3
  %46 = load ptr, ptr %24, align 8
  %47 = call ptr @__cxa_begin_catch(ptr %46) #3
  store ptr %47, ptr %26, align 8
  %48 = invoke noundef nonnull align 8 dereferenceable(8) ptr @_ZN6casadi4uerrEv()
          to label %49 unwind label %61

49:                                               ; preds = %45
  %50 = invoke noundef nonnull align 8 dereferenceable(8) ptr @_ZStlsISt11char_traitsIcEERSt13basic_ostreamIcT_ES5_PKc(ptr noundef nonnull align 8 dereferenceable(8) %48, ptr noundef @.str.132)
          to label %51 unwind label %61

51:                                               ; preds = %49
  %52 = load ptr, ptr %26, align 8, !tbaa !234
  %53 = load ptr, ptr %52, align 8, !tbaa !52
  %54 = getelementptr inbounds ptr, ptr %53, i64 2
  %55 = load ptr, ptr %54, align 8
  %56 = call noundef ptr %55(ptr noundef nonnull align 8 dereferenceable(8) %52) #3
  %57 = invoke noundef nonnull align 8 dereferenceable(8) ptr @_ZStlsISt11char_traitsIcEERSt13basic_ostreamIcT_ES5_PKc(ptr noundef nonnull align 8 dereferenceable(8) %50, ptr noundef %56)
          to label %58 unwind label %61

58:                                               ; preds = %51
  %59 = invoke noundef nonnull align 8 dereferenceable(8) ptr @_ZNSolsEPFRSoS_E(ptr noundef nonnull align 8 dereferenceable(8) %57, ptr noundef @_ZSt4endlIcSt11char_traitsIcEERSt13basic_ostreamIT_T0_ES6_)
          to label %60 unwind label %61

60:                                               ; preds = %58
  store i32 -1, ptr %12, align 4
  call void @__cxa_end_catch()
  call void @llvm.lifetime.end.p0(i64 8, ptr %26) #3
  br label %67

61:                                               ; preds = %58, %51, %49, %45
  %62 = landingpad { ptr, i32 }
          cleanup
  %63 = extractvalue { ptr, i32 } %62, 0
  store ptr %63, ptr %24, align 8
  %64 = extractvalue { ptr, i32 } %62, 1
  store i32 %64, ptr %25, align 4
  invoke void @__cxa_end_catch()
          to label %65 unwind label %74

65:                                               ; preds = %61
  call void @llvm.lifetime.end.p0(i64 8, ptr %26) #3
  br label %69

66:                                               ; No predecessors!
  unreachable

67:                                               ; preds = %60, %36
  %68 = load i32, ptr %12, align 4
  ret i32 %68

69:                                               ; preds = %65, %41
  %70 = load ptr, ptr %24, align 8
  %71 = load i32, ptr %25, align 4
  %72 = insertvalue { ptr, i32 } poison, ptr %70, 0
  %73 = insertvalue { ptr, i32 } %72, i32 %71, 1
  resume { ptr, i32 } %73

74:                                               ; preds = %61
  %75 = landingpad { ptr, i32 }
          catch ptr null
  %76 = extractvalue { ptr, i32 } %75, 0
  call void @__clang_call_terminate(ptr %76) #21
  unreachable
}