; Function Attrs: mustprogress uwtable
define noundef range(i32 -1, 2) i32 @_ZN6casadi13IdasInterface7psetupBEdP17_generic_N_VectorS2_S2_S2_S2_dPvS2_S2_S2_(double noundef %0, ptr noundef readonly captures(none) %1, ptr readnone captures(none) %2, ptr readnone captures(none) %3, ptr readnone captures(none) %4, ptr readnone captures(none) %5, double noundef %6, ptr noundef %7, ptr readnone captures(none) %8, ptr readnone captures(none) %9, ptr readnone captures(none) %10) #4 align 2 personality ptr @__gxx_personality_v0 {
  %12 = fneg double %6
  %13 = invoke noundef i32 @_ZN6casadi13IdasInterface7psetupFEdP17_generic_N_VectorS2_S2_dPvS2_S2_S2_(double noundef %0, ptr noundef %1, ptr poison, ptr poison, double noundef %12, ptr noundef %7, ptr poison, ptr poison, ptr poison)
          to label %34 unwind label %14

14:                                               ; preds = %11
  %15 = landingpad { ptr, i32 }
          catch ptr @_ZTISt9exception
  %16 = extractvalue { ptr, i32 } %15, 1
  %17 = tail call i32 @llvm.eh.typeid.for.p0(ptr nonnull @_ZTISt9exception) #28
  %18 = icmp eq i32 %16, %17
  br i1 %18, label %19, label %35

19:                                               ; preds = %14
  %20 = extractvalue { ptr, i32 } %15, 0
  %21 = tail call ptr @__cxa_begin_catch(ptr %20) #28
  %22 = invoke noundef nonnull align 8 dereferenceable(8) ptr @_ZN6casadi4uerrEv()
          to label %23 unwind label %32

23:                                               ; preds = %19
  %24 = invoke noundef nonnull align 8 dereferenceable(8) ptr @_ZSt16__ostream_insertIcSt11char_traitsIcEERSt13basic_ostreamIT_T0_ES6_PKS3_l(ptr noundef nonnull align 8 dereferenceable(8) %22, ptr noundef nonnull @.str.132, i64 noundef 16)
          to label %_ZStlsISt11char_traitsIcEERSt13basic_ostreamIcT_ES5_PKc.exit unwind label %32

_ZStlsISt11char_traitsIcEERSt13basic_ostreamIcT_ES5_PKc.exit: ; preds = %23
  %25 = load ptr, ptr %21, align 8, !tbaa !32
  %26 = getelementptr inbounds nuw i8, ptr %25, i64 16
  %27 = load ptr, ptr %26, align 8
  %28 = tail call noundef ptr %27(ptr noundef nonnull align 8 dereferenceable(8) %21) #28
  %29 = invoke noundef nonnull align 8 dereferenceable(8) ptr @_ZStlsISt11char_traitsIcEERSt13basic_ostreamIcT_ES5_PKc(ptr noundef nonnull align 8 dereferenceable(8) %22, ptr noundef %28)
          to label %30 unwind label %32

30:                                               ; preds = %_ZStlsISt11char_traitsIcEERSt13basic_ostreamIcT_ES5_PKc.exit
  %31 = invoke noundef nonnull align 8 dereferenceable(8) ptr @_ZSt4endlIcSt11char_traitsIcEERSt13basic_ostreamIT_T0_ES6_(ptr noundef nonnull align 8 dereferenceable(8) %29)
          to label %_ZNSolsEPFRSoS_E.exit unwind label %32

_ZNSolsEPFRSoS_E.exit:                            ; preds = %30
  tail call void @__cxa_end_catch()
  br label %34

32:                                               ; preds = %30, %23, %_ZStlsISt11char_traitsIcEERSt13basic_ostreamIcT_ES5_PKc.exit, %19
  %33 = landingpad { ptr, i32 }
          cleanup
  invoke void @__cxa_end_catch()
          to label %35 unwind label %36

34:                                               ; preds = %11, %_ZNSolsEPFRSoS_E.exit
  %.0 = phi i32 [ -1, %_ZNSolsEPFRSoS_E.exit ], [ %13, %11 ]
  ret i32 %.0

35:                                               ; preds = %32, %14
  %.merged = phi { ptr, i32 } [ %15, %14 ], [ %33, %32 ]
  resume { ptr, i32 } %.merged

36:                                               ; preds = %32
  %37 = landingpad { ptr, i32 }
          catch ptr null
  %38 = extractvalue { ptr, i32 } %37, 0
  tail call void @__clang_call_terminate(ptr %38) #31
  unreachable
}